; Function Attrs: mustprogress nofree norecurse nosync nounwind willreturn memory(argmem: read) uwtable
define noundef double @_ZNK6icu_7521TimeArrayTimeZoneRule6getUTCEdii(ptr nocapture noundef nonnull readonly align 8 dereferenceable(352) %this, double noundef %time, i32 noundef %raw, i32 noundef %dst) local_unnamed_addr #6 align 2 {
entry:
  %fTimeRuleType = getelementptr inbounds i8, ptr %this, i64 80
  %0 = load i32, ptr %fTimeRuleType, align 8
  %cmp.not = icmp eq i32 %0, 2
  %conv = sitofp i32 %raw to double
  %sub = fsub double %time, %conv
  %time.addr.0 = select i1 %cmp.not, double %time, double %sub
  %cmp3 = icmp eq i32 %0, 0
  %conv5 = sitofp i32 %dst to double
  %sub6 = fsub double %time.addr.0, %conv5
  %time.addr.1 = select i1 %cmp3, double %sub6, double %time.addr.0
  ret double %time.addr.1
}